#include <math.h>
#include <stdio.h>
#include <stdlib.h>
#include <string.h>

int main(){
  int n;
  char ml[300];
  scanf("%d",&n);
  int i;
  for(i=0;i<n;i++){
      scanf("%s",ml);
      int l=strlen(ml);
      for(int k=0;k<l;k++){
          if(ml[k]=='A'){ml[k]='T';}
          else if(ml[k]=='T'){ml[k]='A';}
          else if(ml[k]=='C'){ml[k]='G';}
          else if(ml[k]=='G'){ml[k]='C';}
      printf("%c",ml[k]);
      }
      printf("\n");
  }
  
  
    return 0;
}



